target datalayout = "e-m:e-p270:32:32-p271:32:32-p272:64:64-i64:64-i128:128-f80:128-n8:16:32:64-S128"
target triple = "x86_64-unknown-linux-gnu"

; Function Attrs: nounwind sspstrong uwtable
define dso_local i64 @helper_csrrw(ptr noundef %env, i32 noundef %csr, i64 noundef %src, i64 noundef %write_mask) #1 {
entry:
  %env.addr = alloca ptr, align 8
  %csr.addr = alloca i32, align 4
  %src.addr = alloca i64, align 8
  %write_mask.addr = alloca i64, align 8
  %val = alloca i64, align 8
  %ret = alloca i32, align 4
  store ptr %env, ptr %env.addr, align 8
  store i32 %csr, ptr %csr.addr, align 4
  store i64 %src, ptr %src.addr, align 8
  store i64 %write_mask, ptr %write_mask.addr, align 8
  store i64 0, ptr %val, align 8
  %0 = load ptr, ptr %env.addr, align 8
  %1 = load i32, ptr %csr.addr, align 4
  %2 = load i64, ptr %src.addr, align 8
  %3 = load i64, ptr %write_mask.addr, align 8
  %call = call i32 @riscv_csrrw(ptr noundef %0, i32 noundef %1, ptr noundef %val, i64 noundef %2, i64 noundef %3)
  store i32 %call, ptr %ret, align 4
  %4 = load i32, ptr %ret, align 4
  %cmp = icmp ne i32 %4, -1
  br i1 %cmp, label %if.then, label %if.end

if.then:                                          ; preds = %entry
  %5 = load ptr, ptr %env.addr, align 8
  %6 = load i32, ptr %ret, align 4
  %7 = call ptr @llvm.returnaddress(i32 0)
  %8 = ptrtoint ptr %7 to i64
  call void @riscv_raise_exception(ptr noundef %5, i32 noundef %6, i64 noundef %8) #6
  unreachable

if.end:                                           ; preds = %entry
  %9 = load i64, ptr %val, align 8
  ret i64 %9
}