; Function Attrs: nounwind sspstrong uwtable
define dso_local i64 @helper_csrrw(ptr noundef %env, i32 noundef %csr, i64 noundef %src, i64 noundef %write_mask) local_unnamed_addr #2 {
entry:
  %val = alloca i64, align 8
  store i64 0, ptr %val, align 8
  %call = call i32 @riscv_csrrw(ptr noundef %env, i32 noundef %csr, ptr noundef nonnull %val, i64 noundef %src, i64 noundef %write_mask) #9
  %cmp.not = icmp eq i32 %call, -1
  br i1 %cmp.not, label %if.end, label %if.then

if.then:                                          ; preds = %entry
  %0 = call ptr @llvm.returnaddress(i32 0)
  %1 = ptrtoint ptr %0 to i64
  call void @riscv_raise_exception(ptr noundef %env, i32 noundef %call, i64 noundef %1) #8
  unreachable

if.end:                                           ; preds = %entry
  %2 = load i64, ptr %val, align 8
  ret i64 %2
}